target datalayout = "e-m:e-p270:32:32-p271:32:32-p272:64:64-i64:64-i128:128-f80:128-n8:16:32:64-S128"
target triple = "x86_64-pc-linux-gnu"

%struct.gcm128_context = type { %union.anon.0, %union.anon.0, %union.anon.0, %union.anon.0, %union.anon.0, %union.anon.0, [16 x %struct.u128], ptr, ptr, i32, i32, ptr }
%union.anon.0 = type { [2 x i64] }
%struct.u128 = type { i64, i64 }

; Function Attrs: nounwind uwtable
define hidden i32 @CRYPTO_gcm128_aad(ptr noundef %0, ptr noundef %1, i64 noundef %2) #0 {
  %4 = alloca i32, align 4
  %5 = alloca ptr, align 8
  %6 = alloca ptr, align 8
  %7 = alloca i64, align 8
  %8 = alloca i64, align 8
  %9 = alloca i32, align 4
  %10 = alloca i64, align 8
  %11 = alloca ptr, align 8
  %12 = alloca ptr, align 8
  %13 = alloca i32, align 4
  store ptr %0, ptr %5, align 8, !tbaa !6
  store ptr %1, ptr %6, align 8, !tbaa !29
  store i64 %2, ptr %7, align 8, !tbaa !16
  call void @llvm.lifetime.start.p0(i64 8, ptr %8) #5
  call void @llvm.lifetime.start.p0(i64 4, ptr %9) #5
  call void @llvm.lifetime.start.p0(i64 8, ptr %10) #5
  %14 = load ptr, ptr %5, align 8, !tbaa !6
  %15 = getelementptr inbounds nuw %struct.gcm128_context, ptr %14, i32 0, i32 3
  %16 = getelementptr inbounds [2 x i64], ptr %15, i64 0, i64 0
  %17 = load i64, ptr %16, align 8, !tbaa !15
  store i64 %17, ptr %10, align 8, !tbaa !16
  call void @llvm.lifetime.start.p0(i64 8, ptr %11) #5
  %18 = load ptr, ptr %5, align 8, !tbaa !6
  %19 = getelementptr inbounds nuw %struct.gcm128_context, ptr %18, i32 0, i32 7
  %20 = load ptr, ptr %19, align 8, !tbaa !21
  store ptr %20, ptr %11, align 8, !tbaa !11
  call void @llvm.lifetime.start.p0(i64 8, ptr %12) #5
  %21 = load ptr, ptr %5, align 8, !tbaa !6
  %22 = getelementptr inbounds nuw %struct.gcm128_context, ptr %21, i32 0, i32 8
  %23 = load ptr, ptr %22, align 8, !tbaa !22
  store ptr %23, ptr %12, align 8, !tbaa !11
  %24 = load ptr, ptr %5, align 8, !tbaa !6
  %25 = getelementptr inbounds nuw %struct.gcm128_context, ptr %24, i32 0, i32 3
  %26 = getelementptr inbounds [2 x i64], ptr %25, i64 0, i64 1
  %27 = load i64, ptr %26, align 8, !tbaa !15
  %28 = icmp ne i64 %27, 0
  br i1 %28, label %29, label %30

29:                                               ; preds = %3
  store i32 0, ptr %4, align 4
  store i32 1, ptr %13, align 4
  br label %148

30:                                               ; preds = %3
  %31 = load i64, ptr %7, align 8, !tbaa !16
  %32 = load i64, ptr %10, align 8, !tbaa !16
  %33 = add i64 %32, %31
  store i64 %33, ptr %10, align 8, !tbaa !16
  %34 = load i64, ptr %10, align 8, !tbaa !16
  %35 = icmp ugt i64 %34, 2305843009213693952
  br i1 %35, label %40, label %36

36:                                               ; preds = %30
  %37 = load i64, ptr %10, align 8, !tbaa !16
  %38 = load i64, ptr %7, align 8, !tbaa !16
  %39 = icmp ult i64 %37, %38
  br i1 %39, label %40, label %41

40:                                               ; preds = %36, %30
  store i32 0, ptr %4, align 4
  store i32 1, ptr %13, align 4
  br label %148

41:                                               ; preds = %36
  %42 = load i64, ptr %10, align 8, !tbaa !16
  %43 = load ptr, ptr %5, align 8, !tbaa !6
  %44 = getelementptr inbounds nuw %struct.gcm128_context, ptr %43, i32 0, i32 3
  %45 = getelementptr inbounds [2 x i64], ptr %44, i64 0, i64 0
  store i64 %42, ptr %45, align 8, !tbaa !15
  %46 = load ptr, ptr %5, align 8, !tbaa !6
  %47 = getelementptr inbounds nuw %struct.gcm128_context, ptr %46, i32 0, i32 10
  %48 = load i32, ptr %47, align 4, !tbaa !31
  store i32 %48, ptr %9, align 4, !tbaa !20
  %49 = load i32, ptr %9, align 4, !tbaa !20
  %50 = icmp ne i32 %49, 0
  br i1 %50, label %51, label %95

51:                                               ; preds = %41
  br label %52

52:                                               ; preds = %60, %51
  %53 = load i32, ptr %9, align 4, !tbaa !20
  %54 = icmp ne i32 %53, 0
  br i1 %54, label %55, label %58

55:                                               ; preds = %52
  %56 = load i64, ptr %7, align 8, !tbaa !16
  %57 = icmp ne i64 %56, 0
  br label %58

58:                                               ; preds = %55, %52
  %59 = phi i1 [ false, %52 ], [ %57, %55 ]
  br i1 %59, label %60, label %79

60:                                               ; preds = %58
  %61 = load ptr, ptr %6, align 8, !tbaa !29
  %62 = getelementptr inbounds nuw i8, ptr %61, i32 1
  store ptr %62, ptr %6, align 8, !tbaa !29
  %63 = load i8, ptr %61, align 1, !tbaa !15
  %64 = zext i8 %63 to i32
  %65 = load ptr, ptr %5, align 8, !tbaa !6
  %66 = getelementptr inbounds nuw %struct.gcm128_context, ptr %65, i32 0, i32 4
  %67 = load i32, ptr %9, align 4, !tbaa !20
  %68 = zext i32 %67 to i64
  %69 = getelementptr inbounds nuw [16 x i8], ptr %66, i64 0, i64 %68
  %70 = load i8, ptr %69, align 1, !tbaa !15
  %71 = zext i8 %70 to i32
  %72 = xor i32 %71, %64
  %73 = trunc i32 %72 to i8
  store i8 %73, ptr %69, align 1, !tbaa !15
  %74 = load i64, ptr %7, align 8, !tbaa !16
  %75 = add i64 %74, -1
  store i64 %75, ptr %7, align 8, !tbaa !16
  %76 = load i32, ptr %9, align 4, !tbaa !20
  %77 = add i32 %76, 1
  %78 = urem i32 %77, 16
  store i32 %78, ptr %9, align 4, !tbaa !20
  br label %52, !llvm.loop !38

79:                                               ; preds = %58
  %80 = load i32, ptr %9, align 4, !tbaa !20
  %81 = icmp eq i32 %80, 0
  br i1 %81, label %82, label %90

82:                                               ; preds = %79
  %83 = load ptr, ptr %11, align 8, !tbaa !11
  %84 = load ptr, ptr %5, align 8, !tbaa !6
  %85 = getelementptr inbounds nuw %struct.gcm128_context, ptr %84, i32 0, i32 4
  %86 = getelementptr inbounds [2 x i64], ptr %85, i64 0, i64 0
  %87 = load ptr, ptr %5, align 8, !tbaa !6
  %88 = getelementptr inbounds nuw %struct.gcm128_context, ptr %87, i32 0, i32 6
  %89 = getelementptr inbounds [16 x %struct.u128], ptr %88, i64 0, i64 0
  call void %83(ptr noundef %86, ptr noundef %89)
  br label %94

90:                                               ; preds = %79
  %91 = load i32, ptr %9, align 4, !tbaa !20
  %92 = load ptr, ptr %5, align 8, !tbaa !6
  %93 = getelementptr inbounds nuw %struct.gcm128_context, ptr %92, i32 0, i32 10
  store i32 %91, ptr %93, align 4, !tbaa !31
  store i32 1, ptr %4, align 4
  store i32 1, ptr %13, align 4
  br label %148

94:                                               ; preds = %82
  br label %95

95:                                               ; preds = %94, %41
  %96 = load i64, ptr %7, align 8, !tbaa !16
  %97 = and i64 %96, -16
  store i64 %97, ptr %8, align 8, !tbaa !16
  %98 = load i64, ptr %8, align 8, !tbaa !16
  %99 = icmp ne i64 %98, 0
  br i1 %99, label %100, label %116

100:                                              ; preds = %95
  %101 = load ptr, ptr %12, align 8, !tbaa !11
  %102 = load ptr, ptr %5, align 8, !tbaa !6
  %103 = getelementptr inbounds nuw %struct.gcm128_context, ptr %102, i32 0, i32 4
  %104 = getelementptr inbounds [2 x i64], ptr %103, i64 0, i64 0
  %105 = load ptr, ptr %5, align 8, !tbaa !6
  %106 = getelementptr inbounds nuw %struct.gcm128_context, ptr %105, i32 0, i32 6
  %107 = getelementptr inbounds [16 x %struct.u128], ptr %106, i64 0, i64 0
  %108 = load ptr, ptr %6, align 8, !tbaa !29
  %109 = load i64, ptr %8, align 8, !tbaa !16
  call void %101(ptr noundef %104, ptr noundef %107, ptr noundef %108, i64 noundef %109)
  %110 = load i64, ptr %8, align 8, !tbaa !16
  %111 = load ptr, ptr %6, align 8, !tbaa !29
  %112 = getelementptr inbounds nuw i8, ptr %111, i64 %110
  store ptr %112, ptr %6, align 8, !tbaa !29
  %113 = load i64, ptr %8, align 8, !tbaa !16
  %114 = load i64, ptr %7, align 8, !tbaa !16
  %115 = sub i64 %114, %113
  store i64 %115, ptr %7, align 8, !tbaa !16
  br label %116

116:                                              ; preds = %100, %95
  %117 = load i64, ptr %7, align 8, !tbaa !16
  %118 = icmp ne i64 %117, 0
  br i1 %118, label %119, label %144

119:                                              ; preds = %116
  %120 = load i64, ptr %7, align 8, !tbaa !16
  %121 = trunc i64 %120 to i32
  store i32 %121, ptr %9, align 4, !tbaa !20
  store i64 0, ptr %8, align 8, !tbaa !16
  br label %122

122:                                              ; preds = %140, %119
  %123 = load i64, ptr %8, align 8, !tbaa !16
  %124 = load i64, ptr %7, align 8, !tbaa !16
  %125 = icmp ult i64 %123, %124
  br i1 %125, label %126, label %143

126:                                              ; preds = %122
  %127 = load ptr, ptr %6, align 8, !tbaa !29
  %128 = load i64, ptr %8, align 8, !tbaa !16
  %129 = getelementptr inbounds nuw i8, ptr %127, i64 %128
  %130 = load i8, ptr %129, align 1, !tbaa !15
  %131 = zext i8 %130 to i32
  %132 = load ptr, ptr %5, align 8, !tbaa !6
  %133 = getelementptr inbounds nuw %struct.gcm128_context, ptr %132, i32 0, i32 4
  %134 = load i64, ptr %8, align 8, !tbaa !16
  %135 = getelementptr inbounds nuw [16 x i8], ptr %133, i64 0, i64 %134
  %136 = load i8, ptr %135, align 1, !tbaa !15
  %137 = zext i8 %136 to i32
  %138 = xor i32 %137, %131
  %139 = trunc i32 %138 to i8
  store i8 %139, ptr %135, align 1, !tbaa !15
  br label %140

140:                                              ; preds = %126
  %141 = load i64, ptr %8, align 8, !tbaa !16
  %142 = add i64 %141, 1
  store i64 %142, ptr %8, align 8, !tbaa !16
  br label %122, !llvm.loop !39

143:                                              ; preds = %122
  br label %144

144:                                              ; preds = %143, %116
  %145 = load i32, ptr %9, align 4, !tbaa !20
  %146 = load ptr, ptr %5, align 8, !tbaa !6
  %147 = getelementptr inbounds nuw %struct.gcm128_context, ptr %146, i32 0, i32 10
  store i32 %145, ptr %147, align 4, !tbaa !31
  store i32 1, ptr %4, align 4
  store i32 1, ptr %13, align 4
  br label %148

148:                                              ; preds = %144, %90, %40, %29
  call void @llvm.lifetime.end.p0(i64 8, ptr %12) #5
  call void @llvm.lifetime.end.p0(i64 8, ptr %11) #5
  call void @llvm.lifetime.end.p0(i64 8, ptr %10) #5
  call void @llvm.lifetime.end.p0(i64 4, ptr %9) #5
  call void @llvm.lifetime.end.p0(i64 8, ptr %8) #5
  %149 = load i32, ptr %4, align 4
  ret i32 %149
}