; Function Attrs: nounwind uwtable
define hidden range(i32 0, 2) i32 @CRYPTO_gcm128_aad(ptr noundef %0, ptr noundef %1, i64 noundef %2) local_unnamed_addr #0 {
  %4 = getelementptr inbounds nuw i8, ptr %0, i64 48
  %5 = getelementptr inbounds nuw i8, ptr %0, i64 352
  %6 = load ptr, ptr %5, align 8, !tbaa !16
  %7 = getelementptr inbounds nuw i8, ptr %0, i64 360
  %8 = load ptr, ptr %7, align 8, !tbaa !17
  %9 = getelementptr inbounds nuw i8, ptr %0, i64 56
  %10 = load i64, ptr %9, align 8, !tbaa !12
  %.not = icmp eq i64 %10, 0
  br i1 %.not, label %11, label %57

11:                                               ; preds = %3
  %12 = load i64, ptr %4, align 8, !tbaa !12
  %13 = add i64 %12, %2
  %14 = icmp ugt i64 %13, 2305843009213693952
  %15 = icmp ult i64 %13, %2
  %or.cond = or i1 %14, %15
  br i1 %or.cond, label %57, label %16

16:                                               ; preds = %11
  store i64 %13, ptr %4, align 8, !tbaa !12
  %17 = getelementptr inbounds nuw i8, ptr %0, i64 372
  %18 = load i32, ptr %17, align 4, !tbaa !23
  %.not61 = icmp eq i32 %18, 0
  br i1 %.not61, label %39, label %.preheader

.preheader:                                       ; preds = %16
  %.not70 = icmp eq i64 %2, 0
  br i1 %.not70, label %.sink.split, label %.lr.ph

.lr.ph:                                           ; preds = %.preheader
  %19 = getelementptr inbounds nuw i8, ptr %0, i64 64
  br label %20

20:                                               ; preds = %.lr.ph, %20
  %.166 = phi ptr [ %1, %.lr.ph ], [ %21, %20 ]
  %.15065 = phi i32 [ %18, %.lr.ph ], [ %29, %20 ]
  %.15464 = phi i64 [ %2, %.lr.ph ], [ %27, %20 ]
  %21 = getelementptr inbounds nuw i8, ptr %.166, i64 1
  %22 = load i8, ptr %.166, align 1, !tbaa !12
  %23 = zext i32 %.15065 to i64
  %24 = getelementptr inbounds nuw [16 x i8], ptr %19, i64 0, i64 %23
  %25 = load i8, ptr %24, align 1, !tbaa !12
  %26 = xor i8 %25, %22
  store i8 %26, ptr %24, align 1, !tbaa !12
  %27 = add nsw i64 %.15464, -1
  %28 = add i32 %.15065, 1
  %29 = and i32 %28, 15
  %30 = and i32 %.15065, 15
  %31 = icmp ne i32 %30, 15
  %32 = icmp ne i64 %27, 0
  %33 = select i1 %31, i1 %32, i1 false
  br i1 %33, label %20, label %._crit_edge, !llvm.loop !30

._crit_edge:                                      ; preds = %20
  %34 = and i32 %.15065, 15
  %35 = icmp eq i32 %34, 15
  br i1 %35, label %36, label %.sink.split

36:                                               ; preds = %._crit_edge
  %37 = getelementptr inbounds nuw i8, ptr %0, i64 64
  %38 = getelementptr inbounds nuw i8, ptr %0, i64 96
  tail call void %6(ptr noundef nonnull %37, ptr noundef nonnull %38) #6
  br label %39

39:                                               ; preds = %36, %16
  %.053 = phi i64 [ %27, %36 ], [ %2, %16 ]
  %.048 = phi ptr [ %21, %36 ], [ %1, %16 ]
  %40 = and i64 %.053, -16
  %.not62 = icmp eq i64 %40, 0
  br i1 %.not62, label %46, label %41

41:                                               ; preds = %39
  %42 = getelementptr inbounds nuw i8, ptr %0, i64 64
  %43 = getelementptr inbounds nuw i8, ptr %0, i64 96
  tail call void %8(ptr noundef nonnull %42, ptr noundef nonnull %43, ptr noundef %.048, i64 noundef %40) #6
  %44 = getelementptr inbounds nuw i8, ptr %.048, i64 %40
  %45 = and i64 %.053, 15
  br label %46

46:                                               ; preds = %41, %39
  %.255 = phi i64 [ %45, %41 ], [ %.053, %39 ]
  %.2 = phi ptr [ %44, %41 ], [ %.048, %39 ]
  %.not63 = icmp eq i64 %.255, 0
  br i1 %.not63, label %.sink.split, label %47

47:                                               ; preds = %46
  %48 = getelementptr inbounds nuw i8, ptr %0, i64 64
  br label %49

49:                                               ; preds = %47, %49
  %.05269 = phi i64 [ 0, %47 ], [ %55, %49 ]
  %50 = getelementptr inbounds nuw i8, ptr %.2, i64 %.05269
  %51 = load i8, ptr %50, align 1, !tbaa !12
  %52 = getelementptr inbounds nuw [16 x i8], ptr %48, i64 0, i64 %.05269
  %53 = load i8, ptr %52, align 1, !tbaa !12
  %54 = xor i8 %53, %51
  store i8 %54, ptr %52, align 1, !tbaa !12
  %55 = add nuw i64 %.05269, 1
  %exitcond.not = icmp eq i64 %55, %.255
  br i1 %exitcond.not, label %.loopexit.loopexit, label %49, !llvm.loop !31

.loopexit.loopexit:                               ; preds = %49
  %56 = trunc i64 %.255 to i32
  br label %.sink.split

.sink.split:                                      ; preds = %46, %.loopexit.loopexit, %._crit_edge, %.preheader
  %.251.sink = phi i32 [ %29, %._crit_edge ], [ %18, %.preheader ], [ 0, %46 ], [ %56, %.loopexit.loopexit ]
  store i32 %.251.sink, ptr %17, align 4, !tbaa !23
  br label %57

57:                                               ; preds = %.sink.split, %11, %3
  %.0 = phi i32 [ 0, %3 ], [ 0, %11 ], [ 1, %.sink.split ]
  ret i32 %.0
}